; Function Attrs: mustprogress nounwind uwtable
define hidden noundef i64 @_ZN14MetaspaceUtils10used_wordsEN9Metaspace12MetadataTypeE(i32 noundef %0) local_unnamed_addr #0 align 2 {
  %2 = icmp eq i32 %0, 0
  br i1 %2, label %3, label %5

3:                                                ; preds = %1
  %4 = tail call noundef i64 @_ZN9metaspace15RunningCounters16used_words_classEv() #14
  br label %7

5:                                                ; preds = %1
  %6 = tail call noundef i64 @_ZN9metaspace15RunningCounters19used_words_nonclassEv() #14
  br label %7

7:                                                ; preds = %5, %3
  %8 = phi i64 [ %4, %3 ], [ %6, %5 ]
  ret i64 %8
}